(lp0
S'poi'
p1
aS'to_messages'
p2
aS'deferral_payments'
p3
aS'shared_receipt_with_poi_perc'
p4
aS'expenses'
p5
aS'expenses_perc'
p6
aS'long_term_incentive'
p7
aS'from_poi_to_this_person'
p8
aS'deferred_income'
p9
aS'restricted_stock_deferred'
p10
aS'shared_receipt_with_poi'
p11
aS'from_messages'
p12
aS'other'
p13
aS'bonus_perc'
p14
aS'long_term_incentive_perc'
p15
aS'director_fees'
p16
aS'gross_payments'
p17
aS'bonus'
p18
aS'total_stock_value'
p19
aS'gross_stock_value'
p20
aS'deferral_payments_perc'
p21
aS'from_this_person_to_poi'
p22
aS'other_perc'
p23
aS'restricted_stock'
p24
aS'director_fees_perc'
p25
aS'salary'
p26
aS'deferred_income_perc'
p27
aS'total_payments'
p28
aS'restricted_stock_deferred_perc'
p29
aS'exercised_stock_options_perc'
p30
aS'from_poi_to_this_person_perc'
p31
aS'exercised_stock_options'
p32
aS'restricted_stock_perc'
p33
aS'salary_perc'
p34
aS'from_this_person_to_poi_perc'
p35
a.